; Function Attrs: mustprogress nofree norecurse nosync nounwind memory(readwrite, inaccessiblemem: none) uwtable
define hidden noundef ptr @_ZN22ComputeLinearScanOrder16common_dominatorEP10BlockBeginS1_(ptr nocapture noundef nonnull readonly align 8 dereferenceable(200) %0, ptr noundef readonly %1, ptr noundef readonly %2) local_unnamed_addr #7 align 2 {
  %4 = getelementptr inbounds i8, ptr %0, i64 56
  %5 = getelementptr inbounds i8, ptr %0, i64 64
  %6 = load i64, ptr %5, align 8
  %7 = add i64 %6, 63
  %.not.i = icmp ult i64 %7, 64
  br i1 %.not.i, label %_ZN6BitMap5clearEv.exit, label %.lr.ph.preheader.i.i.i

.lr.ph.preheader.i.i.i:                           ; preds = %3
  %8 = load ptr, ptr %4, align 8
  %9 = lshr i64 %7, 3
  %10 = and i64 %9, 2305843009213693944
  tail call void @llvm.memset.p0.i64(ptr align 8 %8, i8 0, i64 %10, i1 false)
  br label %_ZN6BitMap5clearEv.exit

_ZN6BitMap5clearEv.exit:                          ; preds = %3, %.lr.ph.preheader.i.i.i
  %.not11 = icmp eq ptr %1, null
  br i1 %.not11, label %.preheader, label %.lr.ph

.preheader:                                       ; preds = %.lr.ph, %_ZN6BitMap5clearEv.exit
  %.not913 = icmp eq ptr %2, null
  br i1 %.not913, label %.critedge, label %.lr.ph15

.lr.ph15:                                         ; preds = %.preheader
  %11 = load ptr, ptr %4, align 8
  br label %24

.lr.ph:                                           ; preds = %_ZN6BitMap5clearEv.exit, %.lr.ph
  %.0812 = phi ptr [ %23, %.lr.ph ], [ %1, %_ZN6BitMap5clearEv.exit ]
  %12 = getelementptr inbounds i8, ptr %.0812, i64 104
  %13 = load i32, ptr %12, align 8
  %14 = sext i32 %13 to i64
  %15 = and i64 %14, 63
  %16 = shl nuw i64 1, %15
  %17 = load ptr, ptr %4, align 8
  %18 = lshr i64 %14, 6
  %19 = getelementptr inbounds i64, ptr %17, i64 %18
  %20 = load i64, ptr %19, align 8
  %21 = or i64 %16, %20
  store i64 %21, ptr %19, align 8
  %22 = getelementptr inbounds i8, ptr %.0812, i64 208
  %23 = load ptr, ptr %22, align 8
  %.not = icmp eq ptr %23, null
  br i1 %.not, label %.preheader, label %.lr.ph, !llvm.loop !35

24:                                               ; preds = %.lr.ph15, %34
  %.014 = phi ptr [ %2, %.lr.ph15 ], [ %36, %34 ]
  %25 = getelementptr inbounds i8, ptr %.014, i64 104
  %26 = load i32, ptr %25, align 8
  %27 = sext i32 %26 to i64
  %28 = lshr i64 %27, 6
  %29 = getelementptr inbounds i64, ptr %11, i64 %28
  %30 = load i64, ptr %29, align 8
  %31 = and i64 %27, 63
  %32 = shl nuw i64 1, %31
  %33 = and i64 %32, %30
  %.not10 = icmp eq i64 %33, 0
  br i1 %.not10, label %34, label %.critedge

34:                                               ; preds = %24
  %35 = getelementptr inbounds i8, ptr %.014, i64 208
  %36 = load ptr, ptr %35, align 8
  %.not9 = icmp eq ptr %36, null
  br i1 %.not9, label %.critedge, label %24, !llvm.loop !36

.critedge:                                        ; preds = %24, %34, %.preheader
  %.0.lcssa = phi ptr [ null, %.preheader ], [ null, %34 ], [ %.014, %24 ]
  ret ptr %.0.lcssa
}